; Function Attrs: mustprogress nofree norecurse nosync nounwind willreturn memory(argmem: readwrite) uwtable
define hidden void @_ZN7Imf_3_214RgbaOutputFile5ToYca13rotateBuffersEv(ptr nocapture noundef nonnull align 8 dereferenceable(352) %this) local_unnamed_addr #10 align 2 {
entry:
  %_buf = getelementptr inbounds i8, ptr %this, i64 96
  %0 = load ptr, ptr %_buf, align 8
  %scevgep = getelementptr inbounds i8, ptr %this, i64 104
  tail call void @llvm.memmove.p0.p0.i64(ptr noundef nonnull align 8 dereferenceable(208) %_buf, ptr noundef nonnull align 8 dereferenceable(208) %scevgep, i64 208, i1 false)
  %arrayidx8 = getelementptr inbounds i8, ptr %this, i64 304
  store ptr %0, ptr %arrayidx8, align 8
  ret void
}